target datalayout = "e-m:e-p270:32:32-p271:32:32-p272:64:64-i64:64-i128:128-f80:128-n8:16:32:64-S128"
target triple = "x86_64-unknown-linux-gnu"

; Function Attrs: mustprogress nounwind uwtable
define linkonce_odr noundef nonnull align 4 dereferenceable(4) ptr @_ZSt3minIiERKT_S2_S2_(ptr noundef nonnull align 4 dereferenceable(4) %__a, ptr noundef nonnull align 4 dereferenceable(4) %__b) #5 comdat {
entry:
  %retval = alloca ptr, align 8
  %__a.addr = alloca ptr, align 8
  %__b.addr = alloca ptr, align 8
  store ptr %__a, ptr %__a.addr, align 8
  store ptr %__b, ptr %__b.addr, align 8
  %0 = load ptr, ptr %__b.addr, align 8
  %1 = load i32, ptr %0, align 4
  %2 = load ptr, ptr %__a.addr, align 8
  %3 = load i32, ptr %2, align 4
  %cmp = icmp slt i32 %1, %3
  br i1 %cmp, label %if.then, label %if.end

if.then:                                          ; preds = %entry
  %4 = load ptr, ptr %__b.addr, align 8
  store ptr %4, ptr %retval, align 8
  br label %return

if.end:                                           ; preds = %entry
  %5 = load ptr, ptr %__a.addr, align 8
  store ptr %5, ptr %retval, align 8
  br label %return

return:                                           ; preds = %if.end, %if.then
  %6 = load ptr, ptr %retval, align 8
  ret ptr %6
}

; Function Attrs: mustprogress uwtable
define hidden void @_ZN19OpenColorIO_v2_4dev21GenerateIdentityLut1DEPfii(ptr noundef %img, i32 noundef %numElements, i32 noundef %numChannels) #6 {
entry:
  %img.addr = alloca ptr, align 8
  %numElements.addr = alloca i32, align 4
  %numChannels.addr = alloca i32, align 4
  %numChannelsToFill = alloca i32, align 4
  %ref.tmp = alloca i32, align 4
  %scale = alloca float, align 4
  %i = alloca i32, align 4
  %c = alloca i32, align 4
  store ptr %img, ptr %img.addr, align 8
  store i32 %numElements, ptr %numElements.addr, align 4
  store i32 %numChannels, ptr %numChannels.addr, align 4
  %0 = load ptr, ptr %img.addr, align 8
  %tobool = icmp ne ptr %0, null
  br i1 %tobool, label %if.end, label %if.then

if.then:                                          ; preds = %entry
  br label %for.end8

if.end:                                           ; preds = %entry
  store i32 3, ptr %ref.tmp, align 4
  %call = call noundef nonnull align 4 dereferenceable(4) ptr @_ZSt3minIiERKT_S2_S2_(ptr noundef nonnull align 4 dereferenceable(4) %ref.tmp, ptr noundef nonnull align 4 dereferenceable(4) %numChannels.addr)
  %1 = load i32, ptr %call, align 4
  store i32 %1, ptr %numChannelsToFill, align 4
  %2 = load i32, ptr %numElements.addr, align 4
  %conv = sitofp i32 %2 to float
  %sub = fsub float %conv, 1.000000e+00
  %div = fdiv float 1.000000e+00, %sub
  store float %div, ptr %scale, align 4
  store i32 0, ptr %i, align 4
  br label %for.cond

for.cond:                                         ; preds = %for.inc6, %if.end
  %3 = load i32, ptr %i, align 4
  %4 = load i32, ptr %numElements.addr, align 4
  %cmp = icmp slt i32 %3, %4
  br i1 %cmp, label %for.body, label %for.end8

for.body:                                         ; preds = %for.cond
  store i32 0, ptr %c, align 4
  br label %for.cond1

for.cond1:                                        ; preds = %for.inc, %for.body
  %5 = load i32, ptr %c, align 4
  %6 = load i32, ptr %numChannelsToFill, align 4
  %cmp2 = icmp slt i32 %5, %6
  br i1 %cmp2, label %for.body3, label %for.end

for.body3:                                        ; preds = %for.cond1
  %7 = load float, ptr %scale, align 4
  %8 = load i32, ptr %i, align 4
  %conv4 = sitofp i32 %8 to float
  %mul = fmul float %7, %conv4
  %9 = load ptr, ptr %img.addr, align 8
  %10 = load i32, ptr %numChannels.addr, align 4
  %11 = load i32, ptr %i, align 4
  %mul5 = mul nsw i32 %10, %11
  %12 = load i32, ptr %c, align 4
  %add = add nsw i32 %mul5, %12
  %idxprom = sext i32 %add to i64
  %arrayidx = getelementptr inbounds float, ptr %9, i64 %idxprom
  store float %mul, ptr %arrayidx, align 4
  br label %for.inc

for.inc:                                          ; preds = %for.body3
  %13 = load i32, ptr %c, align 4
  %inc = add nsw i32 %13, 1
  store i32 %inc, ptr %c, align 4
  br label %for.cond1, !llvm.loop !4

for.end:                                          ; preds = %for.cond1
  br label %for.inc6

for.inc6:                                         ; preds = %for.end
  %14 = load i32, ptr %i, align 4
  %inc7 = add nsw i32 %14, 1
  store i32 %inc7, ptr %i, align 4
  br label %for.cond, !llvm.loop !6

for.end8:                                         ; preds = %for.cond, %if.then
  ret void
}