; Function Attrs: mustprogress nofree norecurse nosync nounwind memory(argmem: write) uwtable
define hidden void @_ZN19OpenColorIO_v2_4dev21GenerateIdentityLut1DEPfii(ptr noundef writeonly %img, i32 noundef %numElements, i32 noundef %numChannels) local_unnamed_addr #5 {
entry:
  %tobool.not = icmp eq ptr %img, null
  br i1 %tobool.not, label %for.end8, label %if.end

if.end:                                           ; preds = %entry
  %conv = sitofp i32 %numElements to float
  %sub = fadd float %conv, -1.000000e+00
  %div = fdiv float 1.000000e+00, %sub
  %cmp13 = icmp sgt i32 %numElements, 0
  %cmp211 = icmp sgt i32 %numChannels, 0
  %or.cond = and i1 %cmp13, %cmp211
  br i1 %or.cond, label %for.cond1.preheader.us.preheader, label %for.end8

for.cond1.preheader.us.preheader:                 ; preds = %if.end
  %.sroa.speculated = tail call i32 @llvm.smin.i32(i32 %numChannels, i32 3)
  %wide.trip.count22 = zext nneg i32 %numElements to i64
  %wide.trip.count = zext nneg i32 %.sroa.speculated to i64
  br label %for.cond1.preheader.us

for.cond1.preheader.us:                           ; preds = %for.cond1.preheader.us.preheader, %for.cond1.for.inc6_crit_edge.us
  %indvars.iv18 = phi i64 [ 0, %for.cond1.preheader.us.preheader ], [ %indvars.iv.next19, %for.cond1.for.inc6_crit_edge.us ]
  %0 = trunc i64 %indvars.iv18 to i32
  %conv4.us = sitofp i32 %0 to float
  %mul.us = fmul float %div, %conv4.us
  %1 = trunc i64 %indvars.iv18 to i32
  %2 = mul i32 %1, %numChannels
  %3 = zext i32 %2 to i64
  %invariant.gep = getelementptr float, ptr %img, i64 %3
  br label %for.body3.us

for.body3.us:                                     ; preds = %for.cond1.preheader.us, %for.body3.us
  %indvars.iv = phi i64 [ 0, %for.cond1.preheader.us ], [ %indvars.iv.next, %for.body3.us ]
  %gep = getelementptr float, ptr %invariant.gep, i64 %indvars.iv
  store float %mul.us, ptr %gep, align 4
  %indvars.iv.next = add nuw nsw i64 %indvars.iv, 1
  %exitcond.not = icmp eq i64 %indvars.iv.next, %wide.trip.count
  br i1 %exitcond.not, label %for.cond1.for.inc6_crit_edge.us, label %for.body3.us, !llvm.loop !4

for.cond1.for.inc6_crit_edge.us:                  ; preds = %for.body3.us
  %indvars.iv.next19 = add nuw nsw i64 %indvars.iv18, 1
  %exitcond23.not = icmp eq i64 %indvars.iv.next19, %wide.trip.count22
  br i1 %exitcond23.not, label %for.end8, label %for.cond1.preheader.us, !llvm.loop !6

for.end8:                                         ; preds = %for.cond1.for.inc6_crit_edge.us, %if.end, %entry
  ret void
}